#include <math.h>
#include <stdio.h>
#include <stdlib.h>
#include <string.h>


int main()
{
    int n,a[300],b[300],i,j,c=0,t;
    float aver=0,d=0;
    scanf("%d",&n);
    for(i=0;i<n;i++) {scanf("%d",&a[i]); aver+=a[i];}
    aver=aver/n;
    
    
    for(i=0;i<n;i++) if((a[i]-aver>0?a[i]-aver:aver-a[i])>d) d=a[i]-aver>0?a[i]-aver:aver-a[i];
    
   
    
    for(i=0;i<n;i++) if((a[i]-aver>0?a[i]-aver:aver-a[i])==d) b[c++]=a[i];
    
    
    for(i=0;i<c;i++)
    for(j=i+1;j<c;j++) if(b[i]>b[j]) {t=b[i]; b[i]=b[j];b[j]=t;}
    
    for(i=0;i<c-1;i++) printf("%d,",b[i]); 
    printf("%d",b[c-1]);
}
