; ModuleID = '21/222.c'
source_filename = "21/222.c"
target datalayout = "e-m:e-p270:32:32-p271:32:32-p272:64:64-i64:64-f80:128-n8:16:32:64-S128"
target triple = "x86_64-pc-linux-gnu"

@.str = private unnamed_addr constant [3 x i8] c"%d\00", align 1
@.str.1 = private unnamed_addr constant [4 x i8] c"%d,\00", align 1

; Function Attrs: noinline nounwind uwtable
define dso_local i32 @main() #0 {
  %1 = alloca i32, align 4
  %2 = alloca i32, align 4
  %3 = alloca [300 x i32], align 16
  %4 = alloca [300 x i32], align 16
  %5 = alloca i32, align 4
  %6 = alloca i32, align 4
  %7 = alloca i32, align 4
  %8 = alloca i32, align 4
  %9 = alloca float, align 4
  %10 = alloca float, align 4
  store i32 0, i32* %1, align 4
  store i32 0, i32* %7, align 4
  store float 0.000000e+00, float* %9, align 4
  store float 0.000000e+00, float* %10, align 4
  %11 = call i32 (i8*, ...) @__isoc99_scanf(i8* getelementptr inbounds ([3 x i8], [3 x i8]* @.str, i64 0, i64 0), i32* %2)
  store i32 0, i32* %5, align 4
  br label %12

12:                                               ; preds = %28, %0
  %13 = load i32, i32* %5, align 4
  %14 = load i32, i32* %2, align 4
  %15 = icmp slt i32 %13, %14
  br i1 %15, label %16, label %31

16:                                               ; preds = %12
  %17 = load i32, i32* %5, align 4
  %18 = sext i32 %17 to i64
  %19 = getelementptr inbounds [300 x i32], [300 x i32]* %3, i64 0, i64 %18
  %20 = call i32 (i8*, ...) @__isoc99_scanf(i8* getelementptr inbounds ([3 x i8], [3 x i8]* @.str, i64 0, i64 0), i32* %19)
  %21 = load i32, i32* %5, align 4
  %22 = sext i32 %21 to i64
  %23 = getelementptr inbounds [300 x i32], [300 x i32]* %3, i64 0, i64 %22
  %24 = load i32, i32* %23, align 4
  %25 = sitofp i32 %24 to float
  %26 = load float, float* %9, align 4
  %27 = fadd float %26, %25
  store float %27, float* %9, align 4
  br label %28

28:                                               ; preds = %16
  %29 = load i32, i32* %5, align 4
  %30 = add nsw i32 %29, 1
  store i32 %30, i32* %5, align 4
  br label %12

31:                                               ; preds = %12
  %32 = load float, float* %9, align 4
  %33 = load i32, i32* %2, align 4
  %34 = sitofp i32 %33 to float
  %35 = fdiv float %32, %34
  store float %35, float* %9, align 4
  store i32 0, i32* %5, align 4
  br label %36

36:                                               ; preds = %97, %31
  %37 = load i32, i32* %5, align 4
  %38 = load i32, i32* %2, align 4
  %39 = icmp slt i32 %37, %38
  br i1 %39, label %40, label %100

40:                                               ; preds = %36
  %41 = load i32, i32* %5, align 4
  %42 = sext i32 %41 to i64
  %43 = getelementptr inbounds [300 x i32], [300 x i32]* %3, i64 0, i64 %42
  %44 = load i32, i32* %43, align 4
  %45 = sitofp i32 %44 to float
  %46 = load float, float* %9, align 4
  %47 = fsub float %45, %46
  %48 = fcmp ogt float %47, 0.000000e+00
  br i1 %48, label %49, label %57

49:                                               ; preds = %40
  %50 = load i32, i32* %5, align 4
  %51 = sext i32 %50 to i64
  %52 = getelementptr inbounds [300 x i32], [300 x i32]* %3, i64 0, i64 %51
  %53 = load i32, i32* %52, align 4
  %54 = sitofp i32 %53 to float
  %55 = load float, float* %9, align 4
  %56 = fsub float %54, %55
  br label %65

57:                                               ; preds = %40
  %58 = load float, float* %9, align 4
  %59 = load i32, i32* %5, align 4
  %60 = sext i32 %59 to i64
  %61 = getelementptr inbounds [300 x i32], [300 x i32]* %3, i64 0, i64 %60
  %62 = load i32, i32* %61, align 4
  %63 = sitofp i32 %62 to float
  %64 = fsub float %58, %63
  br label %65

65:                                               ; preds = %57, %49
  %66 = phi float [ %56, %49 ], [ %64, %57 ]
  %67 = load float, float* %10, align 4
  %68 = fcmp ogt float %66, %67
  br i1 %68, label %69, label %96

69:                                               ; preds = %65
  %70 = load i32, i32* %5, align 4
  %71 = sext i32 %70 to i64
  %72 = getelementptr inbounds [300 x i32], [300 x i32]* %3, i64 0, i64 %71
  %73 = load i32, i32* %72, align 4
  %74 = sitofp i32 %73 to float
  %75 = load float, float* %9, align 4
  %76 = fsub float %74, %75
  %77 = fcmp ogt float %76, 0.000000e+00
  br i1 %77, label %78, label %86

78:                                               ; preds = %69
  %79 = load i32, i32* %5, align 4
  %80 = sext i32 %79 to i64
  %81 = getelementptr inbounds [300 x i32], [300 x i32]* %3, i64 0, i64 %80
  %82 = load i32, i32* %81, align 4
  %83 = sitofp i32 %82 to float
  %84 = load float, float* %9, align 4
  %85 = fsub float %83, %84
  br label %94

86:                                               ; preds = %69
  %87 = load float, float* %9, align 4
  %88 = load i32, i32* %5, align 4
  %89 = sext i32 %88 to i64
  %90 = getelementptr inbounds [300 x i32], [300 x i32]* %3, i64 0, i64 %89
  %91 = load i32, i32* %90, align 4
  %92 = sitofp i32 %91 to float
  %93 = fsub float %87, %92
  br label %94

94:                                               ; preds = %86, %78
  %95 = phi float [ %85, %78 ], [ %93, %86 ]
  store float %95, float* %10, align 4
  br label %96

96:                                               ; preds = %94, %65
  br label %97

97:                                               ; preds = %96
  %98 = load i32, i32* %5, align 4
  %99 = add nsw i32 %98, 1
  store i32 %99, i32* %5, align 4
  br label %36

100:                                              ; preds = %36
  store i32 0, i32* %5, align 4
  br label %101

101:                                              ; preds = %144, %100
  %102 = load i32, i32* %5, align 4
  %103 = load i32, i32* %2, align 4
  %104 = icmp slt i32 %102, %103
  br i1 %104, label %105, label %147

105:                                              ; preds = %101
  %106 = load i32, i32* %5, align 4
  %107 = sext i32 %106 to i64
  %108 = getelementptr inbounds [300 x i32], [300 x i32]* %3, i64 0, i64 %107
  %109 = load i32, i32* %108, align 4
  %110 = sitofp i32 %109 to float
  %111 = load float, float* %9, align 4
  %112 = fsub float %110, %111
  %113 = fcmp ogt float %112, 0.000000e+00
  br i1 %113, label %114, label %122

114:                                              ; preds = %105
  %115 = load i32, i32* %5, align 4
  %116 = sext i32 %115 to i64
  %117 = getelementptr inbounds [300 x i32], [300 x i32]* %3, i64 0, i64 %116
  %118 = load i32, i32* %117, align 4
  %119 = sitofp i32 %118 to float
  %120 = load float, float* %9, align 4
  %121 = fsub float %119, %120
  br label %130

122:                                              ; preds = %105
  %123 = load float, float* %9, align 4
  %124 = load i32, i32* %5, align 4
  %125 = sext i32 %124 to i64
  %126 = getelementptr inbounds [300 x i32], [300 x i32]* %3, i64 0, i64 %125
  %127 = load i32, i32* %126, align 4
  %128 = sitofp i32 %127 to float
  %129 = fsub float %123, %128
  br label %130

130:                                              ; preds = %122, %114
  %131 = phi float [ %121, %114 ], [ %129, %122 ]
  %132 = load float, float* %10, align 4
  %133 = fcmp oeq float %131, %132
  br i1 %133, label %134, label %143

134:                                              ; preds = %130
  %135 = load i32, i32* %5, align 4
  %136 = sext i32 %135 to i64
  %137 = getelementptr inbounds [300 x i32], [300 x i32]* %3, i64 0, i64 %136
  %138 = load i32, i32* %137, align 4
  %139 = load i32, i32* %7, align 4
  %140 = add nsw i32 %139, 1
  store i32 %140, i32* %7, align 4
  %141 = sext i32 %139 to i64
  %142 = getelementptr inbounds [300 x i32], [300 x i32]* %4, i64 0, i64 %141
  store i32 %138, i32* %142, align 4
  br label %143

143:                                              ; preds = %134, %130
  br label %144

144:                                              ; preds = %143
  %145 = load i32, i32* %5, align 4
  %146 = add nsw i32 %145, 1
  store i32 %146, i32* %5, align 4
  br label %101

147:                                              ; preds = %101
  store i32 0, i32* %5, align 4
  br label %148

148:                                              ; preds = %190, %147
  %149 = load i32, i32* %5, align 4
  %150 = load i32, i32* %7, align 4
  %151 = icmp slt i32 %149, %150
  br i1 %151, label %152, label %193

152:                                              ; preds = %148
  %153 = load i32, i32* %5, align 4
  %154 = add nsw i32 %153, 1
  store i32 %154, i32* %6, align 4
  br label %155

155:                                              ; preds = %186, %152
  %156 = load i32, i32* %6, align 4
  %157 = load i32, i32* %7, align 4
  %158 = icmp slt i32 %156, %157
  br i1 %158, label %159, label %189

159:                                              ; preds = %155
  %160 = load i32, i32* %5, align 4
  %161 = sext i32 %160 to i64
  %162 = getelementptr inbounds [300 x i32], [300 x i32]* %4, i64 0, i64 %161
  %163 = load i32, i32* %162, align 4
  %164 = load i32, i32* %6, align 4
  %165 = sext i32 %164 to i64
  %166 = getelementptr inbounds [300 x i32], [300 x i32]* %4, i64 0, i64 %165
  %167 = load i32, i32* %166, align 4
  %168 = icmp sgt i32 %163, %167
  br i1 %168, label %169, label %185

169:                                              ; preds = %159
  %170 = load i32, i32* %5, align 4
  %171 = sext i32 %170 to i64
  %172 = getelementptr inbounds [300 x i32], [300 x i32]* %4, i64 0, i64 %171
  %173 = load i32, i32* %172, align 4
  store i32 %173, i32* %8, align 4
  %174 = load i32, i32* %6, align 4
  %175 = sext i32 %174 to i64
  %176 = getelementptr inbounds [300 x i32], [300 x i32]* %4, i64 0, i64 %175
  %177 = load i32, i32* %176, align 4
  %178 = load i32, i32* %5, align 4
  %179 = sext i32 %178 to i64
  %180 = getelementptr inbounds [300 x i32], [300 x i32]* %4, i64 0, i64 %179
  store i32 %177, i32* %180, align 4
  %181 = load i32, i32* %8, align 4
  %182 = load i32, i32* %6, align 4
  %183 = sext i32 %182 to i64
  %184 = getelementptr inbounds [300 x i32], [300 x i32]* %4, i64 0, i64 %183
  store i32 %181, i32* %184, align 4
  br label %185

185:                                              ; preds = %169, %159
  br label %186

186:                                              ; preds = %185
  %187 = load i32, i32* %6, align 4
  %188 = add nsw i32 %187, 1
  store i32 %188, i32* %6, align 4
  br label %155

189:                                              ; preds = %155
  br label %190

190:                                              ; preds = %189
  %191 = load i32, i32* %5, align 4
  %192 = add nsw i32 %191, 1
  store i32 %192, i32* %5, align 4
  br label %148

193:                                              ; preds = %148
  store i32 0, i32* %5, align 4
  br label %194

194:                                              ; preds = %205, %193
  %195 = load i32, i32* %5, align 4
  %196 = load i32, i32* %7, align 4
  %197 = sub nsw i32 %196, 1
  %198 = icmp slt i32 %195, %197
  br i1 %198, label %199, label %208

199:                                              ; preds = %194
  %200 = load i32, i32* %5, align 4
  %201 = sext i32 %200 to i64
  %202 = getelementptr inbounds [300 x i32], [300 x i32]* %4, i64 0, i64 %201
  %203 = load i32, i32* %202, align 4
  %204 = call i32 (i8*, ...) @printf(i8* getelementptr inbounds ([4 x i8], [4 x i8]* @.str.1, i64 0, i64 0), i32 %203)
  br label %205

205:                                              ; preds = %199
  %206 = load i32, i32* %5, align 4
  %207 = add nsw i32 %206, 1
  store i32 %207, i32* %5, align 4
  br label %194

208:                                              ; preds = %194
  %209 = load i32, i32* %7, align 4
  %210 = sub nsw i32 %209, 1
  %211 = sext i32 %210 to i64
  %212 = getelementptr inbounds [300 x i32], [300 x i32]* %4, i64 0, i64 %211
  %213 = load i32, i32* %212, align 4
  %214 = call i32 (i8*, ...) @printf(i8* getelementptr inbounds ([3 x i8], [3 x i8]* @.str, i64 0, i64 0), i32 %213)
  %215 = load i32, i32* %1, align 4
  ret i32 %215
}

declare dso_local i32 @__isoc99_scanf(i8*, ...) #1

declare dso_local i32 @printf(i8*, ...) #1


!llvm.module.flags = !{!0}
!llvm.ident = !{!1}

!0 = !{i32 1, !"wchar_size", i32 4}
!1 = !{!"clang version 10.0.0-4ubuntu1 "}
